target datalayout = "e-m:e-p270:32:32-p271:32:32-p272:64:64-i64:64-i128:128-f80:128-n8:16:32:64-S128"
target triple = "x86_64-pc-linux-gnu"

%struct._cms_typehandler_struct = type { i32, ptr, ptr, ptr, ptr, ptr, i32 }
%struct._cms_io_handler = type { ptr, ptr, i32, i32, [256 x i8], ptr, ptr, ptr, ptr, ptr }
%struct._cmsPipeline_struct = type { ptr, i32, i32, ptr, ptr, ptr, ptr, ptr, ptr, i32 }

@.str.18 = private unnamed_addr constant [43 x i8] c"LUT is not suitable to be saved as LutAToB\00", align 1

; Function Attrs: nounwind uwtable
define internal i32 @Type_LUTA2B_Write(ptr noundef %0, ptr noundef %1, ptr noundef %2, i32 noundef %3) #0 {
  %5 = alloca i32, align 4
  %6 = alloca ptr, align 8
  %7 = alloca ptr, align 8
  %8 = alloca ptr, align 8
  %9 = alloca i32, align 4
  %10 = alloca ptr, align 8
  %11 = alloca i32, align 4
  %12 = alloca i32, align 4
  %13 = alloca ptr, align 8
  %14 = alloca ptr, align 8
  %15 = alloca ptr, align 8
  %16 = alloca ptr, align 8
  %17 = alloca ptr, align 8
  %18 = alloca i32, align 4
  %19 = alloca i32, align 4
  %20 = alloca i32, align 4
  %21 = alloca i32, align 4
  %22 = alloca i32, align 4
  %23 = alloca i32, align 4
  %24 = alloca i32, align 4
  %25 = alloca i32, align 4
  store ptr %0, ptr %6, align 8
  store ptr %1, ptr %7, align 8
  store ptr %2, ptr %8, align 8
  store i32 %3, ptr %9, align 4
  %26 = load ptr, ptr %8, align 8
  store ptr %26, ptr %10, align 8
  store ptr null, ptr %13, align 8
  store ptr null, ptr %14, align 8
  store ptr null, ptr %15, align 8
  store ptr null, ptr %16, align 8
  store ptr null, ptr %17, align 8
  store i32 0, ptr %18, align 4
  store i32 0, ptr %19, align 4
  store i32 0, ptr %20, align 4
  store i32 0, ptr %21, align 4
  store i32 0, ptr %22, align 4
  %27 = load ptr, ptr %7, align 8
  %28 = getelementptr inbounds %struct._cms_io_handler, ptr %27, i32 0, i32 8
  %29 = load ptr, ptr %28, align 8
  %30 = load ptr, ptr %7, align 8
  %31 = call i32 %29(ptr noundef %30)
  %32 = zext i32 %31 to i64
  %33 = sub i64 %32, 8
  %34 = trunc i64 %33 to i32
  store i32 %34, ptr %23, align 4
  %35 = load ptr, ptr %10, align 8
  %36 = getelementptr inbounds %struct._cmsPipeline_struct, ptr %35, i32 0, i32 0
  %37 = load ptr, ptr %36, align 8
  %38 = icmp ne ptr %37, null
  br i1 %38, label %39, label %63

39:                                               ; preds = %4
  %40 = load ptr, ptr %10, align 8
  %41 = call i32 (ptr, i32, ...) @cmsPipelineCheckAndRetreiveStages(ptr noundef %40, i32 noundef 1, i32 noundef 1668707188, ptr noundef %14)
  %42 = icmp ne i32 %41, 0
  br i1 %42, label %62, label %43

43:                                               ; preds = %39
  %44 = load ptr, ptr %10, align 8
  %45 = call i32 (ptr, i32, ...) @cmsPipelineCheckAndRetreiveStages(ptr noundef %44, i32 noundef 3, i32 noundef 1668707188, i32 noundef 1835103334, i32 noundef 1668707188, ptr noundef %15, ptr noundef %16, ptr noundef %14)
  %46 = icmp ne i32 %45, 0
  br i1 %46, label %61, label %47

47:                                               ; preds = %43
  %48 = load ptr, ptr %10, align 8
  %49 = call i32 (ptr, i32, ...) @cmsPipelineCheckAndRetreiveStages(ptr noundef %48, i32 noundef 3, i32 noundef 1668707188, i32 noundef 1668052340, i32 noundef 1668707188, ptr noundef %13, ptr noundef %17, ptr noundef %14)
  %50 = icmp ne i32 %49, 0
  br i1 %50, label %60, label %51

51:                                               ; preds = %47
  %52 = load ptr, ptr %10, align 8
  %53 = call i32 (ptr, i32, ...) @cmsPipelineCheckAndRetreiveStages(ptr noundef %52, i32 noundef 5, i32 noundef 1668707188, i32 noundef 1668052340, i32 noundef 1668707188, i32 noundef 1835103334, i32 noundef 1668707188, ptr noundef %13, ptr noundef %17, ptr noundef %15, ptr noundef %16, ptr noundef %14)
  %54 = icmp ne i32 %53, 0
  br i1 %54, label %59, label %55

55:                                               ; preds = %51
  %56 = load ptr, ptr %6, align 8
  %57 = getelementptr inbounds %struct._cms_typehandler_struct, ptr %56, i32 0, i32 5
  %58 = load ptr, ptr %57, align 8
  call void (ptr, i32, ptr, ...) @cmsSignalError(ptr noundef %58, i32 noundef 13, ptr noundef @.str.18)
  store i32 0, ptr %5, align 4
  br label %266

59:                                               ; preds = %51
  br label %60

60:                                               ; preds = %59, %47
  br label %61

61:                                               ; preds = %60, %43
  br label %62

62:                                               ; preds = %61, %39
  br label %63

63:                                               ; preds = %62, %4
  %64 = load ptr, ptr %10, align 8
  %65 = call i32 @cmsPipelineInputChannels(ptr noundef %64)
  store i32 %65, ptr %11, align 4
  %66 = load ptr, ptr %10, align 8
  %67 = call i32 @cmsPipelineOutputChannels(ptr noundef %66)
  store i32 %67, ptr %12, align 4
  %68 = load ptr, ptr %7, align 8
  %69 = load i32, ptr %11, align 4
  %70 = trunc i32 %69 to i8
  %71 = call i32 @_cmsWriteUInt8Number(ptr noundef %68, i8 noundef zeroext %70)
  %72 = icmp ne i32 %71, 0
  br i1 %72, label %74, label %73

73:                                               ; preds = %63
  store i32 0, ptr %5, align 4
  br label %266

74:                                               ; preds = %63
  %75 = load ptr, ptr %7, align 8
  %76 = load i32, ptr %12, align 4
  %77 = trunc i32 %76 to i8
  %78 = call i32 @_cmsWriteUInt8Number(ptr noundef %75, i8 noundef zeroext %77)
  %79 = icmp ne i32 %78, 0
  br i1 %79, label %81, label %80

80:                                               ; preds = %74
  store i32 0, ptr %5, align 4
  br label %266

81:                                               ; preds = %74
  %82 = load ptr, ptr %7, align 8
  %83 = call i32 @_cmsWriteUInt16Number(ptr noundef %82, i16 noundef zeroext 0)
  %84 = icmp ne i32 %83, 0
  br i1 %84, label %86, label %85

85:                                               ; preds = %81
  store i32 0, ptr %5, align 4
  br label %266

86:                                               ; preds = %81
  %87 = load ptr, ptr %7, align 8
  %88 = getelementptr inbounds %struct._cms_io_handler, ptr %87, i32 0, i32 8
  %89 = load ptr, ptr %88, align 8
  %90 = load ptr, ptr %7, align 8
  %91 = call i32 %89(ptr noundef %90)
  store i32 %91, ptr %24, align 4
  %92 = load ptr, ptr %7, align 8
  %93 = call i32 @_cmsWriteUInt32Number(ptr noundef %92, i32 noundef 0)
  %94 = icmp ne i32 %93, 0
  br i1 %94, label %96, label %95

95:                                               ; preds = %86
  store i32 0, ptr %5, align 4
  br label %266

96:                                               ; preds = %86
  %97 = load ptr, ptr %7, align 8
  %98 = call i32 @_cmsWriteUInt32Number(ptr noundef %97, i32 noundef 0)
  %99 = icmp ne i32 %98, 0
  br i1 %99, label %101, label %100

100:                                              ; preds = %96
  store i32 0, ptr %5, align 4
  br label %266

101:                                              ; preds = %96
  %102 = load ptr, ptr %7, align 8
  %103 = call i32 @_cmsWriteUInt32Number(ptr noundef %102, i32 noundef 0)
  %104 = icmp ne i32 %103, 0
  br i1 %104, label %106, label %105

105:                                              ; preds = %101
  store i32 0, ptr %5, align 4
  br label %266

106:                                              ; preds = %101
  %107 = load ptr, ptr %7, align 8
  %108 = call i32 @_cmsWriteUInt32Number(ptr noundef %107, i32 noundef 0)
  %109 = icmp ne i32 %108, 0
  br i1 %109, label %111, label %110

110:                                              ; preds = %106
  store i32 0, ptr %5, align 4
  br label %266

111:                                              ; preds = %106
  %112 = load ptr, ptr %7, align 8
  %113 = call i32 @_cmsWriteUInt32Number(ptr noundef %112, i32 noundef 0)
  %114 = icmp ne i32 %113, 0
  br i1 %114, label %116, label %115

115:                                              ; preds = %111
  store i32 0, ptr %5, align 4
  br label %266

116:                                              ; preds = %111
  %117 = load ptr, ptr %13, align 8
  %118 = icmp ne ptr %117, null
  br i1 %118, label %119, label %134

119:                                              ; preds = %116
  %120 = load ptr, ptr %7, align 8
  %121 = getelementptr inbounds %struct._cms_io_handler, ptr %120, i32 0, i32 8
  %122 = load ptr, ptr %121, align 8
  %123 = load ptr, ptr %7, align 8
  %124 = call i32 %122(ptr noundef %123)
  %125 = load i32, ptr %23, align 4
  %126 = sub i32 %124, %125
  store i32 %126, ptr %22, align 4
  %127 = load ptr, ptr %6, align 8
  %128 = load ptr, ptr %7, align 8
  %129 = load ptr, ptr %13, align 8
  %130 = call i32 @WriteSetOfCurves(ptr noundef %127, ptr noundef %128, i32 noundef 1885434465, ptr noundef %129)
  %131 = icmp ne i32 %130, 0
  br i1 %131, label %133, label %132

132:                                              ; preds = %119
  store i32 0, ptr %5, align 4
  br label %266

133:                                              ; preds = %119
  br label %134

134:                                              ; preds = %133, %116
  %135 = load ptr, ptr %17, align 8
  %136 = icmp ne ptr %135, null
  br i1 %136, label %137, label %158

137:                                              ; preds = %134
  %138 = load ptr, ptr %7, align 8
  %139 = getelementptr inbounds %struct._cms_io_handler, ptr %138, i32 0, i32 8
  %140 = load ptr, ptr %139, align 8
  %141 = load ptr, ptr %7, align 8
  %142 = call i32 %140(ptr noundef %141)
  %143 = load i32, ptr %23, align 4
  %144 = sub i32 %142, %143
  store i32 %144, ptr %21, align 4
  %145 = load ptr, ptr %6, align 8
  %146 = load ptr, ptr %7, align 8
  %147 = load ptr, ptr %10, align 8
  %148 = getelementptr inbounds %struct._cmsPipeline_struct, ptr %147, i32 0, i32 9
  %149 = load i32, ptr %148, align 8
  %150 = icmp ne i32 %149, 0
  %151 = select i1 %150, i32 1, i32 2
  %152 = trunc i32 %151 to i8
  %153 = load ptr, ptr %17, align 8
  %154 = call i32 @WriteCLUT(ptr noundef %145, ptr noundef %146, i8 noundef zeroext %152, ptr noundef %153)
  %155 = icmp ne i32 %154, 0
  br i1 %155, label %157, label %156

156:                                              ; preds = %137
  store i32 0, ptr %5, align 4
  br label %266

157:                                              ; preds = %137
  br label %158

158:                                              ; preds = %157, %134
  %159 = load ptr, ptr %15, align 8
  %160 = icmp ne ptr %159, null
  br i1 %160, label %161, label %176

161:                                              ; preds = %158
  %162 = load ptr, ptr %7, align 8
  %163 = getelementptr inbounds %struct._cms_io_handler, ptr %162, i32 0, i32 8
  %164 = load ptr, ptr %163, align 8
  %165 = load ptr, ptr %7, align 8
  %166 = call i32 %164(ptr noundef %165)
  %167 = load i32, ptr %23, align 4
  %168 = sub i32 %166, %167
  store i32 %168, ptr %20, align 4
  %169 = load ptr, ptr %6, align 8
  %170 = load ptr, ptr %7, align 8
  %171 = load ptr, ptr %15, align 8
  %172 = call i32 @WriteSetOfCurves(ptr noundef %169, ptr noundef %170, i32 noundef 1885434465, ptr noundef %171)
  %173 = icmp ne i32 %172, 0
  br i1 %173, label %175, label %174

174:                                              ; preds = %161
  store i32 0, ptr %5, align 4
  br label %266

175:                                              ; preds = %161
  br label %176

176:                                              ; preds = %175, %158
  %177 = load ptr, ptr %16, align 8
  %178 = icmp ne ptr %177, null
  br i1 %178, label %179, label %194

179:                                              ; preds = %176
  %180 = load ptr, ptr %7, align 8
  %181 = getelementptr inbounds %struct._cms_io_handler, ptr %180, i32 0, i32 8
  %182 = load ptr, ptr %181, align 8
  %183 = load ptr, ptr %7, align 8
  %184 = call i32 %182(ptr noundef %183)
  %185 = load i32, ptr %23, align 4
  %186 = sub i32 %184, %185
  store i32 %186, ptr %19, align 4
  %187 = load ptr, ptr %6, align 8
  %188 = load ptr, ptr %7, align 8
  %189 = load ptr, ptr %16, align 8
  %190 = call i32 @WriteMatrix(ptr noundef %187, ptr noundef %188, ptr noundef %189)
  %191 = icmp ne i32 %190, 0
  br i1 %191, label %193, label %192

192:                                              ; preds = %179
  store i32 0, ptr %5, align 4
  br label %266

193:                                              ; preds = %179
  br label %194

194:                                              ; preds = %193, %176
  %195 = load ptr, ptr %14, align 8
  %196 = icmp ne ptr %195, null
  br i1 %196, label %197, label %212

197:                                              ; preds = %194
  %198 = load ptr, ptr %7, align 8
  %199 = getelementptr inbounds %struct._cms_io_handler, ptr %198, i32 0, i32 8
  %200 = load ptr, ptr %199, align 8
  %201 = load ptr, ptr %7, align 8
  %202 = call i32 %200(ptr noundef %201)
  %203 = load i32, ptr %23, align 4
  %204 = sub i32 %202, %203
  store i32 %204, ptr %18, align 4
  %205 = load ptr, ptr %6, align 8
  %206 = load ptr, ptr %7, align 8
  %207 = load ptr, ptr %14, align 8
  %208 = call i32 @WriteSetOfCurves(ptr noundef %205, ptr noundef %206, i32 noundef 1885434465, ptr noundef %207)
  %209 = icmp ne i32 %208, 0
  br i1 %209, label %211, label %210

210:                                              ; preds = %197
  store i32 0, ptr %5, align 4
  br label %266

211:                                              ; preds = %197
  br label %212

212:                                              ; preds = %211, %194
  %213 = load ptr, ptr %7, align 8
  %214 = getelementptr inbounds %struct._cms_io_handler, ptr %213, i32 0, i32 8
  %215 = load ptr, ptr %214, align 8
  %216 = load ptr, ptr %7, align 8
  %217 = call i32 %215(ptr noundef %216)
  store i32 %217, ptr %25, align 4
  %218 = load ptr, ptr %7, align 8
  %219 = getelementptr inbounds %struct._cms_io_handler, ptr %218, i32 0, i32 6
  %220 = load ptr, ptr %219, align 8
  %221 = load ptr, ptr %7, align 8
  %222 = load i32, ptr %24, align 4
  %223 = call i32 %220(ptr noundef %221, i32 noundef %222)
  %224 = icmp ne i32 %223, 0
  br i1 %224, label %226, label %225

225:                                              ; preds = %212
  store i32 0, ptr %5, align 4
  br label %266

226:                                              ; preds = %212
  %227 = load ptr, ptr %7, align 8
  %228 = load i32, ptr %18, align 4
  %229 = call i32 @_cmsWriteUInt32Number(ptr noundef %227, i32 noundef %228)
  %230 = icmp ne i32 %229, 0
  br i1 %230, label %232, label %231

231:                                              ; preds = %226
  store i32 0, ptr %5, align 4
  br label %266

232:                                              ; preds = %226
  %233 = load ptr, ptr %7, align 8
  %234 = load i32, ptr %19, align 4
  %235 = call i32 @_cmsWriteUInt32Number(ptr noundef %233, i32 noundef %234)
  %236 = icmp ne i32 %235, 0
  br i1 %236, label %238, label %237

237:                                              ; preds = %232
  store i32 0, ptr %5, align 4
  br label %266

238:                                              ; preds = %232
  %239 = load ptr, ptr %7, align 8
  %240 = load i32, ptr %20, align 4
  %241 = call i32 @_cmsWriteUInt32Number(ptr noundef %239, i32 noundef %240)
  %242 = icmp ne i32 %241, 0
  br i1 %242, label %244, label %243

243:                                              ; preds = %238
  store i32 0, ptr %5, align 4
  br label %266

244:                                              ; preds = %238
  %245 = load ptr, ptr %7, align 8
  %246 = load i32, ptr %21, align 4
  %247 = call i32 @_cmsWriteUInt32Number(ptr noundef %245, i32 noundef %246)
  %248 = icmp ne i32 %247, 0
  br i1 %248, label %250, label %249

249:                                              ; preds = %244
  store i32 0, ptr %5, align 4
  br label %266

250:                                              ; preds = %244
  %251 = load ptr, ptr %7, align 8
  %252 = load i32, ptr %22, align 4
  %253 = call i32 @_cmsWriteUInt32Number(ptr noundef %251, i32 noundef %252)
  %254 = icmp ne i32 %253, 0
  br i1 %254, label %256, label %255

255:                                              ; preds = %250
  store i32 0, ptr %5, align 4
  br label %266

256:                                              ; preds = %250
  %257 = load ptr, ptr %7, align 8
  %258 = getelementptr inbounds %struct._cms_io_handler, ptr %257, i32 0, i32 6
  %259 = load ptr, ptr %258, align 8
  %260 = load ptr, ptr %7, align 8
  %261 = load i32, ptr %25, align 4
  %262 = call i32 %259(ptr noundef %260, i32 noundef %261)
  %263 = icmp ne i32 %262, 0
  br i1 %263, label %265, label %264

264:                                              ; preds = %256
  store i32 0, ptr %5, align 4
  br label %266

265:                                              ; preds = %256
  store i32 1, ptr %5, align 4
  br label %266

266:                                              ; preds = %265, %264, %255, %249, %243, %237, %231, %225, %210, %192, %174, %156, %132, %115, %110, %105, %100, %95, %85, %80, %73, %55
  %267 = load i32, ptr %5, align 4
  ret i32 %267
}