; Function Attrs: nounwind uwtable
define internal range(i32 0, 2) i32 @Type_LUTA2B_Write(ptr nocapture noundef readonly %0, ptr noundef %1, ptr noundef %2, i32 %3) #0 {
  %5 = alloca ptr, align 8
  %6 = alloca ptr, align 8
  %7 = alloca ptr, align 8
  %8 = alloca ptr, align 8
  %9 = alloca ptr, align 8
  store ptr null, ptr %5, align 8
  store ptr null, ptr %6, align 8
  store ptr null, ptr %7, align 8
  store ptr null, ptr %8, align 8
  store ptr null, ptr %9, align 8
  %10 = getelementptr inbounds i8, ptr %1, i64 304
  %11 = load ptr, ptr %10, align 8
  %12 = tail call i32 %11(ptr noundef %1) #13
  %13 = add i32 %12, -8
  %14 = load ptr, ptr %2, align 8
  %.not = icmp eq ptr %14, null
  br i1 %.not, label %26, label %15

15:                                               ; preds = %4
  %16 = call i32 (ptr, i32, ...) @cmsPipelineCheckAndRetreiveStages(ptr noundef nonnull %2, i32 noundef 1, i32 noundef 1668707188, ptr noundef nonnull %6) #13
  %.not72 = icmp eq i32 %16, 0
  br i1 %.not72, label %17, label %26

17:                                               ; preds = %15
  %18 = call i32 (ptr, i32, ...) @cmsPipelineCheckAndRetreiveStages(ptr noundef nonnull %2, i32 noundef 3, i32 noundef 1668707188, i32 noundef 1835103334, i32 noundef 1668707188, ptr noundef nonnull %7, ptr noundef nonnull %8, ptr noundef nonnull %6) #13
  %.not73 = icmp eq i32 %18, 0
  br i1 %.not73, label %19, label %26

19:                                               ; preds = %17
  %20 = call i32 (ptr, i32, ...) @cmsPipelineCheckAndRetreiveStages(ptr noundef nonnull %2, i32 noundef 3, i32 noundef 1668707188, i32 noundef 1668052340, i32 noundef 1668707188, ptr noundef nonnull %5, ptr noundef nonnull %9, ptr noundef nonnull %6) #13
  %.not74 = icmp eq i32 %20, 0
  br i1 %.not74, label %21, label %26

21:                                               ; preds = %19
  %22 = call i32 (ptr, i32, ...) @cmsPipelineCheckAndRetreiveStages(ptr noundef nonnull %2, i32 noundef 5, i32 noundef 1668707188, i32 noundef 1668052340, i32 noundef 1668707188, i32 noundef 1835103334, i32 noundef 1668707188, ptr noundef nonnull %5, ptr noundef nonnull %9, ptr noundef nonnull %7, ptr noundef nonnull %8, ptr noundef nonnull %6) #13
  %.not75 = icmp eq i32 %22, 0
  br i1 %.not75, label %23, label %26

23:                                               ; preds = %21
  %24 = getelementptr inbounds i8, ptr %0, i64 40
  %25 = load ptr, ptr %24, align 8
  call void (ptr, i32, ptr, ...) @cmsSignalError(ptr noundef %25, i32 noundef 13, ptr noundef nonnull @.str.18) #13
  br label %111

26:                                               ; preds = %15, %19, %21, %17, %4
  %27 = call i32 @cmsPipelineInputChannels(ptr noundef nonnull %2) #13
  %28 = call i32 @cmsPipelineOutputChannels(ptr noundef nonnull %2) #13
  %29 = trunc i32 %27 to i8
  %30 = call i32 @_cmsWriteUInt8Number(ptr noundef nonnull %1, i8 noundef zeroext %29) #13
  %.not76 = icmp eq i32 %30, 0
  br i1 %.not76, label %111, label %31

31:                                               ; preds = %26
  %32 = trunc i32 %28 to i8
  %33 = call i32 @_cmsWriteUInt8Number(ptr noundef nonnull %1, i8 noundef zeroext %32) #13
  %.not77 = icmp eq i32 %33, 0
  br i1 %.not77, label %111, label %34

34:                                               ; preds = %31
  %35 = call i32 @_cmsWriteUInt16Number(ptr noundef nonnull %1, i16 noundef zeroext 0) #13
  %.not78 = icmp eq i32 %35, 0
  br i1 %.not78, label %111, label %36

36:                                               ; preds = %34
  %37 = load ptr, ptr %10, align 8
  %38 = call i32 %37(ptr noundef nonnull %1) #13
  %39 = call i32 @_cmsWriteUInt32Number(ptr noundef nonnull %1, i32 noundef 0) #13
  %.not79 = icmp eq i32 %39, 0
  br i1 %.not79, label %111, label %40

40:                                               ; preds = %36
  %41 = call i32 @_cmsWriteUInt32Number(ptr noundef nonnull %1, i32 noundef 0) #13
  %.not80 = icmp eq i32 %41, 0
  br i1 %.not80, label %111, label %42

42:                                               ; preds = %40
  %43 = call i32 @_cmsWriteUInt32Number(ptr noundef nonnull %1, i32 noundef 0) #13
  %.not81 = icmp eq i32 %43, 0
  br i1 %.not81, label %111, label %44

44:                                               ; preds = %42
  %45 = call i32 @_cmsWriteUInt32Number(ptr noundef nonnull %1, i32 noundef 0) #13
  %.not82 = icmp eq i32 %45, 0
  br i1 %.not82, label %111, label %46

46:                                               ; preds = %44
  %47 = call i32 @_cmsWriteUInt32Number(ptr noundef nonnull %1, i32 noundef 0) #13
  %.not83 = icmp eq i32 %47, 0
  br i1 %.not83, label %111, label %48

48:                                               ; preds = %46
  %49 = load ptr, ptr %5, align 8
  %.not84 = icmp eq ptr %49, null
  br i1 %.not84, label %56, label %50

50:                                               ; preds = %48
  %51 = load ptr, ptr %10, align 8
  %52 = call i32 %51(ptr noundef nonnull %1) #13
  %53 = sub i32 %52, %13
  %54 = load ptr, ptr %5, align 8
  %55 = call fastcc i32 @WriteSetOfCurves(ptr noundef %0, ptr noundef nonnull %1, ptr noundef %54)
  %.not85 = icmp eq i32 %55, 0
  br i1 %.not85, label %111, label %56

56:                                               ; preds = %50, %48
  %.069 = phi i32 [ %53, %50 ], [ 0, %48 ]
  %57 = load ptr, ptr %9, align 8
  %.not86 = icmp eq ptr %57, null
  br i1 %.not86, label %68, label %58

58:                                               ; preds = %56
  %59 = load ptr, ptr %10, align 8
  %60 = call i32 %59(ptr noundef nonnull %1) #13
  %61 = sub i32 %60, %13
  %62 = getelementptr inbounds i8, ptr %2, i64 64
  %63 = load i32, ptr %62, align 8
  %.not87 = icmp eq i32 %63, 0
  %64 = select i1 %.not87, i8 2, i8 1
  %65 = load ptr, ptr %9, align 8
  %66 = getelementptr i8, ptr %65, i64 48
  %.val = load ptr, ptr %66, align 8
  %67 = call fastcc i32 @WriteCLUT(ptr noundef %0, ptr noundef nonnull %1, i8 noundef zeroext %64, ptr %.val)
  %.not88 = icmp eq i32 %67, 0
  br i1 %.not88, label %111, label %68

68:                                               ; preds = %58, %56
  %.070 = phi i32 [ %61, %58 ], [ 0, %56 ]
  %69 = load ptr, ptr %7, align 8
  %.not89 = icmp eq ptr %69, null
  br i1 %.not89, label %76, label %70

70:                                               ; preds = %68
  %71 = load ptr, ptr %10, align 8
  %72 = call i32 %71(ptr noundef nonnull %1) #13
  %73 = sub i32 %72, %13
  %74 = load ptr, ptr %7, align 8
  %75 = call fastcc i32 @WriteSetOfCurves(ptr noundef %0, ptr noundef nonnull %1, ptr noundef %74)
  %.not90 = icmp eq i32 %75, 0
  br i1 %.not90, label %111, label %76

76:                                               ; preds = %70, %68
  %.071 = phi i32 [ %73, %70 ], [ 0, %68 ]
  %77 = load ptr, ptr %8, align 8
  %.not91 = icmp eq ptr %77, null
  br i1 %.not91, label %84, label %78

78:                                               ; preds = %76
  %79 = load ptr, ptr %10, align 8
  %80 = call i32 %79(ptr noundef nonnull %1) #13
  %81 = sub i32 %80, %13
  %82 = load ptr, ptr %8, align 8
  %83 = call fastcc i32 @WriteMatrix(ptr noundef nonnull %1, ptr noundef %82)
  %.not92 = icmp eq i32 %83, 0
  br i1 %.not92, label %111, label %84

84:                                               ; preds = %78, %76
  %.068 = phi i32 [ %81, %78 ], [ 0, %76 ]
  %85 = load ptr, ptr %6, align 8
  %.not93 = icmp eq ptr %85, null
  br i1 %.not93, label %92, label %86

86:                                               ; preds = %84
  %87 = load ptr, ptr %10, align 8
  %88 = call i32 %87(ptr noundef nonnull %1) #13
  %89 = sub i32 %88, %13
  %90 = load ptr, ptr %6, align 8
  %91 = call fastcc i32 @WriteSetOfCurves(ptr noundef %0, ptr noundef nonnull %1, ptr noundef %90)
  %.not94 = icmp eq i32 %91, 0
  br i1 %.not94, label %111, label %92

92:                                               ; preds = %86, %84
  %.067 = phi i32 [ %89, %86 ], [ 0, %84 ]
  %93 = load ptr, ptr %10, align 8
  %94 = call i32 %93(ptr noundef nonnull %1) #13
  %95 = getelementptr inbounds i8, ptr %1, i64 288
  %96 = load ptr, ptr %95, align 8
  %97 = call i32 %96(ptr noundef nonnull %1, i32 noundef %38) #13
  %.not95 = icmp eq i32 %97, 0
  br i1 %.not95, label %111, label %98

98:                                               ; preds = %92
  %99 = call i32 @_cmsWriteUInt32Number(ptr noundef nonnull %1, i32 noundef %.067) #13
  %.not96 = icmp eq i32 %99, 0
  br i1 %.not96, label %111, label %100

100:                                              ; preds = %98
  %101 = call i32 @_cmsWriteUInt32Number(ptr noundef nonnull %1, i32 noundef %.068) #13
  %.not97 = icmp eq i32 %101, 0
  br i1 %.not97, label %111, label %102

102:                                              ; preds = %100
  %103 = call i32 @_cmsWriteUInt32Number(ptr noundef nonnull %1, i32 noundef %.071) #13
  %.not98 = icmp eq i32 %103, 0
  br i1 %.not98, label %111, label %104

104:                                              ; preds = %102
  %105 = call i32 @_cmsWriteUInt32Number(ptr noundef nonnull %1, i32 noundef %.070) #13
  %.not99 = icmp eq i32 %105, 0
  br i1 %.not99, label %111, label %106

106:                                              ; preds = %104
  %107 = call i32 @_cmsWriteUInt32Number(ptr noundef nonnull %1, i32 noundef %.069) #13
  %.not100 = icmp eq i32 %107, 0
  br i1 %.not100, label %111, label %108

108:                                              ; preds = %106
  %109 = load ptr, ptr %95, align 8
  %110 = call i32 %109(ptr noundef nonnull %1, i32 noundef %94) #13
  %.not101 = icmp ne i32 %110, 0
  %. = zext i1 %.not101 to i32
  br label %111

111:                                              ; preds = %108, %106, %104, %102, %100, %98, %92, %86, %78, %70, %58, %50, %46, %44, %42, %40, %36, %34, %31, %26, %23
  %.0 = phi i32 [ 0, %23 ], [ 0, %26 ], [ 0, %31 ], [ 0, %34 ], [ 0, %36 ], [ 0, %40 ], [ 0, %42 ], [ 0, %44 ], [ 0, %46 ], [ 0, %50 ], [ 0, %58 ], [ 0, %70 ], [ 0, %78 ], [ 0, %86 ], [ 0, %92 ], [ 0, %98 ], [ 0, %100 ], [ 0, %102 ], [ 0, %104 ], [ 0, %106 ], [ %., %108 ]
  ret i32 %.0
}